target datalayout = "e-m:e-p270:32:32-p271:32:32-p272:64:64-i64:64-i128:128-f80:128-n8:16:32:64-S128"
target triple = "x86_64-pc-linux-gnu"

%struct._lv_vector_path_t = type { i32, %struct._lv_array_t, %struct._lv_array_t }
%struct._lv_array_t = type { ptr, i32, i32, i32, i8 }

; Function Attrs: nounwind uwtable
define void @lv_vector_path_close(ptr noundef %0) #0 {
  %2 = alloca ptr, align 8
  %3 = alloca i32, align 4
  store ptr %0, ptr %2, align 8, !tbaa !3
  %4 = load ptr, ptr %2, align 8, !tbaa !3
  %5 = getelementptr inbounds nuw %struct._lv_vector_path_t, ptr %4, i32 0, i32 1
  %6 = call zeroext i1 @lv_array_is_empty(ptr noundef %5)
  br i1 %6, label %7, label %8

7:                                                ; preds = %1
  br label %50

8:                                                ; preds = %1
  br label %9

9:                                                ; preds = %8
  %10 = load ptr, ptr %2, align 8, !tbaa !3
  %11 = getelementptr inbounds nuw %struct._lv_vector_path_t, ptr %10, i32 0, i32 1
  %12 = call i32 @lv_array_size(ptr noundef %11)
  %13 = add i32 %12, 1
  %14 = load ptr, ptr %2, align 8, !tbaa !3
  %15 = getelementptr inbounds nuw %struct._lv_vector_path_t, ptr %14, i32 0, i32 1
  %16 = call i32 @lv_array_capacity(ptr noundef %15)
  %17 = icmp ugt i32 %13, %16
  br i1 %17, label %18, label %27

18:                                               ; preds = %9
  %19 = load ptr, ptr %2, align 8, !tbaa !3
  %20 = getelementptr inbounds nuw %struct._lv_vector_path_t, ptr %19, i32 0, i32 1
  %21 = load ptr, ptr %2, align 8, !tbaa !3
  %22 = getelementptr inbounds nuw %struct._lv_vector_path_t, ptr %21, i32 0, i32 1
  %23 = getelementptr inbounds nuw %struct._lv_array_t, ptr %22, i32 0, i32 2
  %24 = load i32, ptr %23, align 4, !tbaa !22
  %25 = shl i32 %24, 1
  %26 = call zeroext i1 @lv_array_resize(ptr noundef %20, i32 noundef %25)
  br label %27

27:                                               ; preds = %18, %9
  %28 = load ptr, ptr %2, align 8, !tbaa !3
  %29 = getelementptr inbounds nuw %struct._lv_vector_path_t, ptr %28, i32 0, i32 2
  %30 = call i32 @lv_array_size(ptr noundef %29)
  %31 = add i32 %30, 1
  %32 = load ptr, ptr %2, align 8, !tbaa !3
  %33 = getelementptr inbounds nuw %struct._lv_vector_path_t, ptr %32, i32 0, i32 2
  %34 = call i32 @lv_array_capacity(ptr noundef %33)
  %35 = icmp ugt i32 %31, %34
  br i1 %35, label %36, label %45

36:                                               ; preds = %27
  %37 = load ptr, ptr %2, align 8, !tbaa !3
  %38 = getelementptr inbounds nuw %struct._lv_vector_path_t, ptr %37, i32 0, i32 2
  %39 = load ptr, ptr %2, align 8, !tbaa !3
  %40 = getelementptr inbounds nuw %struct._lv_vector_path_t, ptr %39, i32 0, i32 2
  %41 = getelementptr inbounds nuw %struct._lv_array_t, ptr %40, i32 0, i32 2
  %42 = load i32, ptr %41, align 4, !tbaa !23
  %43 = shl i32 %42, 1
  %44 = call zeroext i1 @lv_array_resize(ptr noundef %38, i32 noundef %43)
  br label %45

45:                                               ; preds = %36, %27
  br label %46

46:                                               ; preds = %45
  call void @llvm.lifetime.start.p0(i64 4, ptr %3) #7
  store i32 4, ptr %3, align 4, !tbaa !12
  %47 = load ptr, ptr %2, align 8, !tbaa !3
  %48 = getelementptr inbounds nuw %struct._lv_vector_path_t, ptr %47, i32 0, i32 1
  %49 = call i32 @lv_array_push_back(ptr noundef %48, ptr noundef %3)
  call void @llvm.lifetime.end.p0(i64 4, ptr %3) #7
  br label %50

50:                                               ; preds = %46, %7
  ret void
}