; Function Attrs: nounwind uwtable
define void @lv_vector_path_close(ptr noundef %0) local_unnamed_addr #3 {
  %2 = alloca i32, align 4
  %3 = getelementptr inbounds nuw i8, ptr %0, i64 8
  %4 = tail call zeroext i1 @lv_array_is_empty(ptr noundef nonnull %3) #9
  br i1 %4, label %28, label %5

5:                                                ; preds = %1
  %6 = tail call i32 @lv_array_size(ptr noundef nonnull %3) #9
  %7 = add i32 %6, 1
  %8 = tail call i32 @lv_array_capacity(ptr noundef nonnull %3) #9
  %9 = icmp ugt i32 %7, %8
  br i1 %9, label %10, label %15

10:                                               ; preds = %5
  %11 = getelementptr inbounds nuw i8, ptr %0, i64 20
  %12 = load i32, ptr %11, align 4, !tbaa !18
  %13 = shl i32 %12, 1
  %14 = tail call zeroext i1 @lv_array_resize(ptr noundef nonnull %3, i32 noundef %13) #9
  br label %15

15:                                               ; preds = %10, %5
  %16 = getelementptr inbounds nuw i8, ptr %0, i64 32
  %17 = tail call i32 @lv_array_size(ptr noundef nonnull %16) #9
  %18 = add i32 %17, 1
  %19 = tail call i32 @lv_array_capacity(ptr noundef nonnull %16) #9
  %20 = icmp ugt i32 %18, %19
  br i1 %20, label %21, label %26

21:                                               ; preds = %15
  %22 = getelementptr inbounds nuw i8, ptr %0, i64 44
  %23 = load i32, ptr %22, align 4, !tbaa !19
  %24 = shl i32 %23, 1
  %25 = tail call zeroext i1 @lv_array_resize(ptr noundef nonnull %16, i32 noundef %24) #9
  br label %26

26:                                               ; preds = %15, %21
  call void @llvm.lifetime.start.p0(i64 4, ptr nonnull %2) #9
  store i32 4, ptr %2, align 4, !tbaa !20
  %27 = call i32 @lv_array_push_back(ptr noundef nonnull %3, ptr noundef nonnull %2) #9
  call void @llvm.lifetime.end.p0(i64 4, ptr nonnull %2) #9
  br label %28

28:                                               ; preds = %1, %26
  ret void
}